; ModuleID = '24/2692.c'
source_filename = "24/2692.c"
target datalayout = "e-m:e-p270:32:32-p271:32:32-p272:64:64-i64:64-f80:128-n8:16:32:64-S128"
target triple = "x86_64-pc-linux-gnu"

@.str = private unnamed_addr constant [3 x i8] c"%d\00", align 1

; Function Attrs: noinline nounwind uwtable
define dso_local i32 @main() #0 {
  %1 = alloca i32, align 4
  %2 = alloca i32, align 4
  %3 = alloca i32, align 4
  %4 = alloca i32, align 4
  %5 = alloca i32, align 4
  %6 = alloca i32, align 4
  %7 = alloca [30 x i8], align 16
  %8 = alloca [30 x i8], align 16
  %9 = alloca [30 x i8], align 16
  %10 = alloca i8, align 1
  store i32 0, i32* %1, align 4
  store i32 0, i32* %2, align 4
  store i32 0, i32* %3, align 4
  store i32 100, i32* %4, align 4
  %11 = call i32 (i8*, ...) @__isoc99_scanf(i8* getelementptr inbounds ([3 x i8], [3 x i8]* @.str, i64 0, i64 0), i32* %5)
  %12 = call i32 @getchar()
  store i32 0, i32* %6, align 4
  br label %13

13:                                               ; preds = %58, %0
  %14 = load i32, i32* %6, align 4
  %15 = load i32, i32* %5, align 4
  %16 = icmp slt i32 %14, %15
  br i1 %16, label %17, label %59

17:                                               ; preds = %13
  %18 = call i32 @getchar()
  %19 = trunc i32 %18 to i8
  store i8 %19, i8* %10, align 1
  %20 = load i8, i8* %10, align 1
  %21 = sext i8 %20 to i32
  %22 = icmp ne i32 %21, 32
  br i1 %22, label %23, label %34

23:                                               ; preds = %17
  %24 = load i8, i8* %10, align 1
  %25 = sext i8 %24 to i32
  %26 = icmp ne i32 %25, 10
  br i1 %26, label %27, label %34

27:                                               ; preds = %23
  %28 = load i8, i8* %10, align 1
  %29 = load i32, i32* %2, align 4
  %30 = sext i32 %29 to i64
  %31 = getelementptr inbounds [30 x i8], [30 x i8]* %9, i64 0, i64 %30
  store i8 %28, i8* %31, align 1
  %32 = load i32, i32* %2, align 4
  %33 = add nsw i32 %32, 1
  store i32 %33, i32* %2, align 4
  br label %58

34:                                               ; preds = %23, %17
  %35 = load i32, i32* %2, align 4
  %36 = sext i32 %35 to i64
  %37 = getelementptr inbounds [30 x i8], [30 x i8]* %9, i64 0, i64 %36
  store i8 0, i8* %37, align 1
  %38 = load i32, i32* %2, align 4
  %39 = load i32, i32* %3, align 4
  %40 = icmp sgt i32 %38, %39
  br i1 %40, label %41, label %46

41:                                               ; preds = %34
  %42 = getelementptr inbounds [30 x i8], [30 x i8]* %7, i64 0, i64 0
  %43 = getelementptr inbounds [30 x i8], [30 x i8]* %9, i64 0, i64 0
  %44 = call i8* @strcpy(i8* %42, i8* %43) #3
  %45 = load i32, i32* %2, align 4
  store i32 %45, i32* %3, align 4
  br label %46

46:                                               ; preds = %41, %34
  %47 = load i32, i32* %2, align 4
  %48 = load i32, i32* %4, align 4
  %49 = icmp slt i32 %47, %48
  br i1 %49, label %50, label %55

50:                                               ; preds = %46
  %51 = getelementptr inbounds [30 x i8], [30 x i8]* %8, i64 0, i64 0
  %52 = getelementptr inbounds [30 x i8], [30 x i8]* %9, i64 0, i64 0
  %53 = call i8* @strcpy(i8* %51, i8* %52) #3
  %54 = load i32, i32* %2, align 4
  store i32 %54, i32* %4, align 4
  br label %55

55:                                               ; preds = %50, %46
  store i32 0, i32* %2, align 4
  %56 = load i32, i32* %6, align 4
  %57 = add nsw i32 %56, 1
  store i32 %57, i32* %6, align 4
  br label %58

58:                                               ; preds = %55, %27
  br label %13

59:                                               ; preds = %13
  %60 = getelementptr inbounds [30 x i8], [30 x i8]* %7, i64 0, i64 0
  %61 = call i32 @puts(i8* %60)
  %62 = getelementptr inbounds [30 x i8], [30 x i8]* %8, i64 0, i64 0
  %63 = call i32 @puts(i8* %62)
  ret i32 0
}

declare dso_local i32 @__isoc99_scanf(i8*, ...) #1

declare dso_local i32 @getchar() #1

; Function Attrs: nounwind
declare dso_local i8* @strcpy(i8*, i8*) #2

declare dso_local i32 @puts(i8*) #1


!llvm.module.flags = !{!0}
!llvm.ident = !{!1}

!0 = !{i32 1, !"wchar_size", i32 4}
!1 = !{!"clang version 10.0.0-4ubuntu1 "}
